target datalayout = "e-m:e-p270:32:32-p271:32:32-p272:64:64-i64:64-i128:128-f80:128-n8:16:32:64-S128"
target triple = "x86_64-pc-linux-gnu"

%class.XMark = type <{ ptr, ptr, [48 x i8], %class.XMarkStackAllocator, %class.XMarkStripeSet, %class.XMarkTerminate, i8, [7 x i8], i64, i64, i64, i64, i64, i64, i32, [4 x i8] }>
%class.XMarkStackAllocator = type { %class.XStackList, [56 x i8], %class.XMarkStackSpace }
%class.XStackList = type { ptr }
%class.XMarkStackSpace = type { %class.XLock, i64, i64, i64 }
%class.XLock = type { %class.PlatformMutex }
%class.PlatformMutex = type { %union.pthread_mutex_t }
%union.pthread_mutex_t = type { %struct.__pthread_mutex_s }
%struct.__pthread_mutex_s = type { i32, i32, i32, i32, i32, i16, i16, %struct.__pthread_internal_list }
%struct.__pthread_internal_list = type { ptr, ptr }
%class.XMarkStripeSet = type { i64, i64, [48 x i8], [16 x %class.XMarkStripe] }
%class.XMarkStripe = type { %class.XStackList.0, [56 x i8], %class.XStackList.0, [56 x i8] }
%class.XStackList.0 = type { ptr }
%class.XMarkTerminate = type { i32, [60 x i8], i32, i32, [56 x i8] }
%class.XMarkStackEntry = type { i64 }
%class.XMarkThreadLocalStacks = type { ptr, [16 x ptr] }
%class.XMarkContext = type { [8 x i8], %class.XMarkCache, ptr, ptr, %"class.StringDedup::Requests" }
%class.XMarkCache = type { i64, [1024 x %class.XMarkCacheEntry] }
%class.XMarkCacheEntry = type { ptr, i32, i64 }
%"class.StringDedup::Requests" = type <{ ptr, ptr, i64, i8, [7 x i8] }>
%class.XStack = type { i64, ptr, [254 x %class.XMarkStackEntry] }
%"struct.Atomic::PlatformCmpxchg" = type { i8 }
%"struct.Atomic::CmpxchgImpl.23" = type { i8 }

@XMarkStackSpaceStart = external global i64, align 8

; Function Attrs: mustprogress nounwind uwtable
define linkonce_odr hidden noundef ptr @_ZNK6Atomic15PlatformCmpxchgILm8EEclIP6XStackI15XMarkStackEntryLm254EEEET_PVS7_S7_S7_19atomic_memory_order(ptr noundef nonnull align 1 dereferenceable(1) %0, ptr noundef %1, ptr noundef %2, ptr noundef %3, i32 noundef %4) #1 comdat align 2 {
  %6 = alloca ptr, align 8
  %7 = alloca ptr, align 8
  %8 = alloca ptr, align 8
  %9 = alloca ptr, align 8
  %10 = alloca i32, align 4
  store ptr %0, ptr %6, align 8
  store ptr %1, ptr %7, align 8
  store ptr %2, ptr %8, align 8
  store ptr %3, ptr %9, align 8
  store i32 %4, ptr %10, align 4
  %11 = load ptr, ptr %9, align 8
  %12 = load ptr, ptr %8, align 8
  %13 = load ptr, ptr %7, align 8
  %14 = call ptr asm sideeffect "lock cmpxchgq $1,($3)", "={ax},r,{ax},r,~{cc},~{memory},~{dirflag},~{fpsr},~{flags}"(ptr %11, ptr %12, ptr %13) #11, !srcloc !18
  store ptr %14, ptr %9, align 8
  %15 = load ptr, ptr %9, align 8
  ret ptr %15
}

; Function Attrs: mustprogress nounwind uwtable
define linkonce_odr hidden noundef ptr @_ZNK6Atomic11CmpxchgImplIP6XStackI15XMarkStackEntryLm254EES4_S4_vEclEPVS4_S4_S4_19atomic_memory_order(ptr noundef nonnull align 1 dereferenceable(1) %0, ptr noundef %1, ptr noundef %2, ptr noundef %3, i32 noundef %4) #1 comdat align 2 {
  %6 = alloca ptr, align 8
  %7 = alloca ptr, align 8
  %8 = alloca ptr, align 8
  %9 = alloca ptr, align 8
  %10 = alloca i32, align 4
  %11 = alloca ptr, align 8
  %12 = alloca ptr, align 8
  %13 = alloca %"struct.Atomic::PlatformCmpxchg", align 1
  store ptr %0, ptr %6, align 8
  store ptr %1, ptr %7, align 8
  store ptr %2, ptr %8, align 8
  store ptr %3, ptr %9, align 8
  store i32 %4, ptr %10, align 4
  %14 = load ptr, ptr %9, align 8
  store ptr %14, ptr %11, align 8
  %15 = load ptr, ptr %8, align 8
  store ptr %15, ptr %12, align 8
  %16 = load ptr, ptr %7, align 8
  %17 = load ptr, ptr %12, align 8
  %18 = load ptr, ptr %11, align 8
  %19 = load i32, ptr %10, align 4
  %20 = call noundef ptr @_ZNK6Atomic15PlatformCmpxchgILm8EEclIP6XStackI15XMarkStackEntryLm254EEEET_PVS7_S7_S7_19atomic_memory_order(ptr noundef nonnull align 1 dereferenceable(1) %13, ptr noundef %16, ptr noundef %17, ptr noundef %18, i32 noundef %19)
  ret ptr %20
}

; Function Attrs: mustprogress nounwind uwtable
define linkonce_odr hidden noundef ptr @_ZN6Atomic7cmpxchgIP6XStackI15XMarkStackEntryLm254EES4_S4_EET_PVS5_T0_T1_19atomic_memory_order(ptr noundef %0, ptr noundef %1, ptr noundef %2, i32 noundef %3) #1 comdat align 2 {
  %5 = alloca ptr, align 8
  %6 = alloca ptr, align 8
  %7 = alloca ptr, align 8
  %8 = alloca i32, align 4
  %9 = alloca %"struct.Atomic::CmpxchgImpl.23", align 1
  store ptr %0, ptr %5, align 8
  store ptr %1, ptr %6, align 8
  store ptr %2, ptr %7, align 8
  store i32 %3, ptr %8, align 4
  %10 = load ptr, ptr %5, align 8
  %11 = load ptr, ptr %6, align 8
  %12 = load ptr, ptr %7, align 8
  %13 = load i32, ptr %8, align 4
  %14 = call noundef ptr @_ZNK6Atomic11CmpxchgImplIP6XStackI15XMarkStackEntryLm254EES4_S4_vEclEPVS4_S4_S4_19atomic_memory_order(ptr noundef nonnull align 1 dereferenceable(1) %9, ptr noundef %10, ptr noundef %11, ptr noundef %12, i32 noundef %13)
  ret ptr %14
}

; Function Attrs: mustprogress nounwind uwtable
define linkonce_odr hidden noundef ptr @_ZNK10XStackListI6XStackI15XMarkStackEntryLm254EEE24encode_versioned_pointerEPKS2_j(ptr noundef nonnull align 8 dereferenceable(8) %0, ptr noundef %1, i32 noundef %2) #1 comdat align 2 {
  %4 = alloca ptr, align 8
  %5 = alloca ptr, align 8
  %6 = alloca i32, align 4
  %7 = alloca i64, align 8
  store ptr %0, ptr %4, align 8
  store ptr %1, ptr %5, align 8
  store i32 %2, ptr %6, align 4
  %8 = load ptr, ptr %5, align 8
  %9 = icmp eq ptr %8, null
  br i1 %9, label %10, label %11

10:                                               ; preds = %3
  store i64 4294967295, ptr %7, align 8
  br label %17

11:                                               ; preds = %3
  %12 = load ptr, ptr %5, align 8
  %13 = ptrtoint ptr %12 to i64
  %14 = load i64, ptr @XMarkStackSpaceStart, align 8
  %15 = sub i64 %13, %14
  %16 = lshr i64 %15, 11
  store i64 %16, ptr %7, align 8
  br label %17

17:                                               ; preds = %11, %10
  %18 = load i64, ptr %7, align 8
  %19 = shl i64 %18, 32
  %20 = load i32, ptr %6, align 4
  %21 = zext i32 %20 to i64
  %22 = or i64 %19, %21
  %23 = inttoptr i64 %22 to ptr
  ret ptr %23
}

; Function Attrs: mustprogress nounwind uwtable
define linkonce_odr hidden noundef ptr @_ZNK6XStackI15XMarkStackEntryLm254EE4nextEv(ptr noundef nonnull align 8 dereferenceable(2048) %0) #1 comdat align 2 {
  %2 = alloca ptr, align 8
  store ptr %0, ptr %2, align 8
  %3 = load ptr, ptr %2, align 8
  %4 = getelementptr inbounds %class.XStack, ptr %3, i32 0, i32 1
  %5 = load ptr, ptr %4, align 8
  ret ptr %5
}

; Function Attrs: mustprogress nounwind uwtable
define linkonce_odr hidden void @_ZNK10XStackListI6XStackI15XMarkStackEntryLm254EEE24decode_versioned_pointerEPKS2_PPS2_Pj(ptr noundef nonnull align 8 dereferenceable(8) %0, ptr noundef %1, ptr noundef %2, ptr noundef %3) #1 comdat align 2 {
  %5 = alloca ptr, align 8
  %6 = alloca ptr, align 8
  %7 = alloca ptr, align 8
  %8 = alloca ptr, align 8
  %9 = alloca i64, align 8
  store ptr %0, ptr %5, align 8
  store ptr %1, ptr %6, align 8
  store ptr %2, ptr %7, align 8
  store ptr %3, ptr %8, align 8
  %10 = load ptr, ptr %6, align 8
  %11 = ptrtoint ptr %10 to i64
  %12 = lshr i64 %11, 32
  store i64 %12, ptr %9, align 8
  %13 = load i64, ptr %9, align 8
  %14 = icmp eq i64 %13, 4294967295
  br i1 %14, label %15, label %17

15:                                               ; preds = %4
  %16 = load ptr, ptr %7, align 8
  store ptr null, ptr %16, align 8
  br label %24

17:                                               ; preds = %4
  %18 = load i64, ptr %9, align 8
  %19 = shl i64 %18, 11
  %20 = load i64, ptr @XMarkStackSpaceStart, align 8
  %21 = add i64 %19, %20
  %22 = inttoptr i64 %21 to ptr
  %23 = load ptr, ptr %7, align 8
  store ptr %22, ptr %23, align 8
  br label %24

24:                                               ; preds = %17, %15
  %25 = load ptr, ptr %6, align 8
  %26 = ptrtoint ptr %25 to i64
  %27 = trunc i64 %26 to i32
  %28 = load ptr, ptr %8, align 8
  store i32 %27, ptr %28, align 4
  ret void
}

; Function Attrs: mustprogress nounwind uwtable
define linkonce_odr hidden noundef ptr @_ZN10XStackListI6XStackI15XMarkStackEntryLm254EEE3popEv(ptr noundef nonnull align 8 dereferenceable(8) %0) #1 comdat align 2 {
  %2 = alloca ptr, align 8
  %3 = alloca ptr, align 8
  %4 = alloca ptr, align 8
  %5 = alloca ptr, align 8
  %6 = alloca i32, align 4
  %7 = alloca ptr, align 8
  %8 = alloca ptr, align 8
  store ptr %0, ptr %3, align 8
  %9 = load ptr, ptr %3, align 8
  %10 = getelementptr inbounds %class.XStackList.0, ptr %9, i32 0, i32 0
  %11 = load volatile ptr, ptr %10, align 8
  store ptr %11, ptr %4, align 8
  store ptr null, ptr %5, align 8
  store i32 0, ptr %6, align 4
  br label %12

12:                                               ; preds = %32, %1
  %13 = load ptr, ptr %4, align 8
  call void @_ZNK10XStackListI6XStackI15XMarkStackEntryLm254EEE24decode_versioned_pointerEPKS2_PPS2_Pj(ptr noundef nonnull align 8 dereferenceable(8) %9, ptr noundef %13, ptr noundef %5, ptr noundef %6)
  %14 = load ptr, ptr %5, align 8
  %15 = icmp eq ptr %14, null
  br i1 %15, label %16, label %17

16:                                               ; preds = %12
  store ptr null, ptr %2, align 8
  br label %34

17:                                               ; preds = %12
  %18 = load ptr, ptr %5, align 8
  %19 = call noundef ptr @_ZNK6XStackI15XMarkStackEntryLm254EE4nextEv(ptr noundef nonnull align 8 dereferenceable(2048) %18)
  %20 = load i32, ptr %6, align 4
  %21 = add i32 %20, 1
  %22 = call noundef ptr @_ZNK10XStackListI6XStackI15XMarkStackEntryLm254EEE24encode_versioned_pointerEPKS2_j(ptr noundef nonnull align 8 dereferenceable(8) %9, ptr noundef %19, i32 noundef %21)
  store ptr %22, ptr %7, align 8
  %23 = getelementptr inbounds %class.XStackList.0, ptr %9, i32 0, i32 0
  %24 = load ptr, ptr %4, align 8
  %25 = load ptr, ptr %7, align 8
  %26 = call noundef ptr @_ZN6Atomic7cmpxchgIP6XStackI15XMarkStackEntryLm254EES4_S4_EET_PVS5_T0_T1_19atomic_memory_order(ptr noundef %23, ptr noundef %24, ptr noundef %25, i32 noundef 8)
  store ptr %26, ptr %8, align 8
  %27 = load ptr, ptr %8, align 8
  %28 = load ptr, ptr %4, align 8
  %29 = icmp eq ptr %27, %28
  br i1 %29, label %30, label %32

30:                                               ; preds = %17
  %31 = load ptr, ptr %5, align 8
  store ptr %31, ptr %2, align 8
  br label %34

32:                                               ; preds = %17
  %33 = load ptr, ptr %8, align 8
  store ptr %33, ptr %4, align 8
  br label %12, !llvm.loop !25

34:                                               ; preds = %30, %16
  %35 = load ptr, ptr %2, align 8
  ret ptr %35
}

; Function Attrs: mustprogress nounwind uwtable
define linkonce_odr hidden noundef i64 @_ZNK14XMarkStripeSet9stripe_idEPK11XMarkStripe(ptr noundef nonnull align 64 dereferenceable(2112) %0, ptr noundef %1) #1 comdat align 2 {
  %3 = alloca ptr, align 8
  %4 = alloca ptr, align 8
  %5 = alloca i64, align 8
  store ptr %0, ptr %3, align 8
  store ptr %1, ptr %4, align 8
  %6 = load ptr, ptr %3, align 8
  %7 = load ptr, ptr %4, align 8
  %8 = ptrtoint ptr %7 to i64
  %9 = getelementptr inbounds %class.XMarkStripeSet, ptr %6, i32 0, i32 3
  %10 = getelementptr inbounds [16 x %class.XMarkStripe], ptr %9, i64 0, i64 0
  %11 = ptrtoint ptr %10 to i64
  %12 = sub i64 %8, %11
  %13 = udiv i64 %12, 128
  store i64 %13, ptr %5, align 8
  %14 = load i64, ptr %5, align 8
  ret i64 %14
}

; Function Attrs: mustprogress nounwind uwtable
define linkonce_odr hidden void @_ZN22XMarkThreadLocalStacks7installEP14XMarkStripeSetP11XMarkStripeP6XStackI15XMarkStackEntryLm254EE(ptr noundef nonnull align 8 dereferenceable(136) %0, ptr noundef %1, ptr noundef %2, ptr noundef %3) #1 comdat align 2 {
  %5 = alloca ptr, align 8
  %6 = alloca ptr, align 8
  %7 = alloca ptr, align 8
  %8 = alloca ptr, align 8
  %9 = alloca ptr, align 8
  store ptr %0, ptr %5, align 8
  store ptr %1, ptr %6, align 8
  store ptr %2, ptr %7, align 8
  store ptr %3, ptr %8, align 8
  %10 = load ptr, ptr %5, align 8
  %11 = getelementptr inbounds %class.XMarkThreadLocalStacks, ptr %10, i32 0, i32 1
  %12 = load ptr, ptr %6, align 8
  %13 = load ptr, ptr %7, align 8
  %14 = call noundef i64 @_ZNK14XMarkStripeSet9stripe_idEPK11XMarkStripe(ptr noundef nonnull align 64 dereferenceable(2112) %12, ptr noundef %13)
  %15 = getelementptr inbounds [16 x ptr], ptr %11, i64 0, i64 %14
  store ptr %15, ptr %9, align 8
  %16 = load ptr, ptr %8, align 8
  %17 = load ptr, ptr %9, align 8
  store ptr %16, ptr %17, align 8
  ret void
}

; Function Attrs: mustprogress nounwind uwtable
define linkonce_odr hidden noundef ptr @_ZN11XMarkStripe11steal_stackEv(ptr noundef nonnull align 64 dereferenceable(72) %0) #1 comdat align 2 {
  %2 = alloca ptr, align 8
  %3 = alloca ptr, align 8
  %4 = alloca ptr, align 8
  store ptr %0, ptr %3, align 8
  %5 = load ptr, ptr %3, align 8
  %6 = getelementptr inbounds %class.XMarkStripe, ptr %5, i32 0, i32 2
  %7 = call noundef ptr @_ZN10XStackListI6XStackI15XMarkStackEntryLm254EEE3popEv(ptr noundef nonnull align 8 dereferenceable(8) %6)
  store ptr %7, ptr %4, align 8
  %8 = load ptr, ptr %4, align 8
  %9 = icmp ne ptr %8, null
  br i1 %9, label %10, label %12

10:                                               ; preds = %1
  %11 = load ptr, ptr %4, align 8
  store ptr %11, ptr %2, align 8
  br label %15

12:                                               ; preds = %1
  %13 = getelementptr inbounds %class.XMarkStripe, ptr %5, i32 0, i32 0
  %14 = call noundef ptr @_ZN10XStackListI6XStackI15XMarkStackEntryLm254EEE3popEv(ptr noundef nonnull align 8 dereferenceable(8) %13)
  store ptr %14, ptr %2, align 8
  br label %15

15:                                               ; preds = %12, %10
  %16 = load ptr, ptr %2, align 8
  ret ptr %16
}

; Function Attrs: mustprogress nounwind uwtable
define linkonce_odr hidden noundef ptr @_ZN14XMarkStripeSet11stripe_nextEP11XMarkStripe(ptr noundef nonnull align 64 dereferenceable(2112) %0, ptr noundef %1) #1 comdat align 2 {
  %3 = alloca ptr, align 8
  %4 = alloca ptr, align 8
  %5 = alloca i64, align 8
  store ptr %0, ptr %3, align 8
  store ptr %1, ptr %4, align 8
  %6 = load ptr, ptr %3, align 8
  %7 = load ptr, ptr %4, align 8
  %8 = call noundef i64 @_ZNK14XMarkStripeSet9stripe_idEPK11XMarkStripe(ptr noundef nonnull align 64 dereferenceable(2112) %6, ptr noundef %7)
  %9 = add i64 %8, 1
  %10 = getelementptr inbounds %class.XMarkStripeSet, ptr %6, i32 0, i32 1
  %11 = load i64, ptr %10, align 8
  %12 = and i64 %9, %11
  store i64 %12, ptr %5, align 8
  %13 = getelementptr inbounds %class.XMarkStripeSet, ptr %6, i32 0, i32 3
  %14 = load i64, ptr %5, align 8
  %15 = getelementptr inbounds [16 x %class.XMarkStripe], ptr %13, i64 0, i64 %14
  ret ptr %15
}

; Function Attrs: mustprogress nounwind uwtable
define linkonce_odr hidden noundef ptr @_ZN12XMarkContext6stacksEv(ptr noundef nonnull align 8 dereferenceable(24640) %0) #1 comdat align 2 {
  %2 = alloca ptr, align 8
  store ptr %0, ptr %2, align 8
  %3 = load ptr, ptr %2, align 8
  %4 = getelementptr inbounds %class.XMarkContext, ptr %3, i32 0, i32 3
  %5 = load ptr, ptr %4, align 8
  ret ptr %5
}

; Function Attrs: mustprogress nounwind uwtable
define linkonce_odr hidden noundef ptr @_ZN12XMarkContext6stripeEv(ptr noundef nonnull align 8 dereferenceable(24640) %0) #1 comdat align 2 {
  %2 = alloca ptr, align 8
  store ptr %0, ptr %2, align 8
  %3 = load ptr, ptr %2, align 8
  %4 = getelementptr inbounds %class.XMarkContext, ptr %3, i32 0, i32 2
  %5 = load ptr, ptr %4, align 8
  ret ptr %5
}

; Function Attrs: mustprogress nounwind uwtable
define hidden noundef zeroext i1 @_ZN5XMark16try_steal_globalEP12XMarkContext(ptr noundef nonnull align 64 dereferenceable(2492) %0, ptr noundef %1) #1 align 2 {
  %3 = alloca i1, align 1
  %4 = alloca ptr, align 8
  %5 = alloca ptr, align 8
  %6 = alloca ptr, align 8
  %7 = alloca ptr, align 8
  %8 = alloca ptr, align 8
  %9 = alloca ptr, align 8
  store ptr %0, ptr %4, align 8
  store ptr %1, ptr %5, align 8
  %10 = load ptr, ptr %4, align 8
  %11 = load ptr, ptr %5, align 8
  %12 = call noundef ptr @_ZN12XMarkContext6stripeEv(ptr noundef nonnull align 8 dereferenceable(24640) %11)
  store ptr %12, ptr %6, align 8
  %13 = load ptr, ptr %5, align 8
  %14 = call noundef ptr @_ZN12XMarkContext6stacksEv(ptr noundef nonnull align 8 dereferenceable(24640) %13)
  store ptr %14, ptr %7, align 8
  %15 = getelementptr inbounds %class.XMark, ptr %10, i32 0, i32 4
  %16 = load ptr, ptr %6, align 8
  %17 = call noundef ptr @_ZN14XMarkStripeSet11stripe_nextEP11XMarkStripe(ptr noundef nonnull align 64 dereferenceable(2112) %15, ptr noundef %16)
  store ptr %17, ptr %8, align 8
  br label %18

18:                                               ; preds = %33, %2
  %19 = load ptr, ptr %8, align 8
  %20 = load ptr, ptr %6, align 8
  %21 = icmp ne ptr %19, %20
  br i1 %21, label %22, label %37

22:                                               ; preds = %18
  %23 = load ptr, ptr %8, align 8
  %24 = call noundef ptr @_ZN11XMarkStripe11steal_stackEv(ptr noundef nonnull align 64 dereferenceable(72) %23)
  store ptr %24, ptr %9, align 8
  %25 = load ptr, ptr %9, align 8
  %26 = icmp ne ptr %25, null
  br i1 %26, label %27, label %32

27:                                               ; preds = %22
  %28 = load ptr, ptr %7, align 8
  %29 = getelementptr inbounds %class.XMark, ptr %10, i32 0, i32 4
  %30 = load ptr, ptr %6, align 8
  %31 = load ptr, ptr %9, align 8
  call void @_ZN22XMarkThreadLocalStacks7installEP14XMarkStripeSetP11XMarkStripeP6XStackI15XMarkStackEntryLm254EE(ptr noundef nonnull align 8 dereferenceable(136) %28, ptr noundef %29, ptr noundef %30, ptr noundef %31)
  store i1 true, ptr %3, align 1
  br label %38

32:                                               ; preds = %22
  br label %33

33:                                               ; preds = %32
  %34 = getelementptr inbounds %class.XMark, ptr %10, i32 0, i32 4
  %35 = load ptr, ptr %8, align 8
  %36 = call noundef ptr @_ZN14XMarkStripeSet11stripe_nextEP11XMarkStripe(ptr noundef nonnull align 64 dereferenceable(2112) %34, ptr noundef %35)
  store ptr %36, ptr %8, align 8
  br label %18, !llvm.loop !11

37:                                               ; preds = %18
  store i1 false, ptr %3, align 1
  br label %38

38:                                               ; preds = %37, %27
  %39 = load i1, ptr %3, align 1
  ret i1 %39
}