; Function Attrs: mustprogress nounwind uwtable
define hidden noundef zeroext i1 @_ZN5XMark16try_steal_globalEP12XMarkContext(ptr noundef nonnull align 64 dereferenceable(2492) %0, ptr nocapture noundef readonly %1) local_unnamed_addr #0 align 2 {
  %3 = getelementptr inbounds i8, ptr %1, i64 24592
  %4 = load ptr, ptr %3, align 8
  %5 = getelementptr inbounds i8, ptr %1, i64 24600
  %6 = load ptr, ptr %5, align 8
  %7 = ptrtoint ptr %4 to i64
  %8 = getelementptr inbounds i8, ptr %0, i64 256
  %9 = ptrtoint ptr %8 to i64
  %10 = sub i64 %7, %9
  %11 = lshr i64 %10, 7
  %12 = add nuw nsw i64 %11, 1
  %13 = getelementptr inbounds i8, ptr %0, i64 200
  %14 = load i64, ptr %13, align 8
  %15 = and i64 %12, %14
  %.01327 = getelementptr inbounds [16 x %class.XMarkStripe], ptr %8, i64 0, i64 %15
  %.not28.not = icmp eq ptr %.01327, %4
  br i1 %.not28.not, label %.loopexit21, label %.lr.ph

.lr.ph:                                           ; preds = %2, %_ZN11XMarkStripe11steal_stackEv.exit
  %.01330 = phi ptr [ %.013, %_ZN11XMarkStripe11steal_stackEv.exit ], [ %.01327, %2 ]
  %.pn29 = phi i64 [ %72, %_ZN11XMarkStripe11steal_stackEv.exit ], [ %15, %2 ]
  %16 = getelementptr inbounds i8, ptr %.01330, i64 64
  %17 = load volatile ptr, ptr %16, align 8
  br label %18

18:                                               ; preds = %27, %.lr.ph
  %.08.i.i = phi ptr [ %17, %.lr.ph ], [ %40, %27 ]
  %19 = ptrtoint ptr %.08.i.i to i64
  %20 = lshr i64 %19, 32
  %21 = icmp eq i64 %20, 4294967295
  %22 = shl nuw nsw i64 %20, 11
  %23 = load i64, ptr @XMarkStackSpaceStart, align 8
  %24 = add i64 %22, %23
  %25 = icmp eq i64 %24, 0
  %26 = select i1 %21, i1 true, i1 %25
  br i1 %26, label %42, label %27

27:                                               ; preds = %18
  %28 = inttoptr i64 %24 to ptr
  %29 = getelementptr inbounds i8, ptr %28, i64 8
  %30 = load ptr, ptr %29, align 8
  %31 = add i64 %19, 1
  %32 = icmp eq ptr %30, null
  %33 = ptrtoint ptr %30 to i64
  %34 = sub i64 %33, %23
  %35 = shl i64 %34, 21
  %36 = and i64 %35, -4294967296
  %.0.i.i.i = select i1 %32, i64 -4294967296, i64 %36
  %37 = and i64 %31, 4294967295
  %38 = or disjoint i64 %.0.i.i.i, %37
  %39 = inttoptr i64 %38 to ptr
  %40 = tail call noundef ptr asm sideeffect "lock cmpxchgq $1,($3)", "={ax},r,{ax},r,~{cc},~{memory},~{dirflag},~{fpsr},~{flags}"(ptr %39, ptr %.08.i.i, ptr nonnull %16) #17, !srcloc !13
  %41 = icmp eq ptr %40, %.08.i.i
  br i1 %41, label %.loopexit, label %18, !llvm.loop !14

42:                                               ; preds = %18
  %43 = load volatile ptr, ptr %.01330, align 8
  br label %44

44:                                               ; preds = %53, %42
  %.08.i5.i = phi ptr [ %43, %42 ], [ %66, %53 ]
  %45 = ptrtoint ptr %.08.i5.i to i64
  %46 = lshr i64 %45, 32
  %47 = icmp eq i64 %46, 4294967295
  %48 = shl nuw nsw i64 %46, 11
  %49 = load i64, ptr @XMarkStackSpaceStart, align 8
  %50 = add i64 %48, %49
  %51 = icmp eq i64 %50, 0
  %52 = select i1 %47, i1 true, i1 %51
  br i1 %52, label %_ZN11XMarkStripe11steal_stackEv.exit, label %53

53:                                               ; preds = %44
  %54 = inttoptr i64 %50 to ptr
  %55 = getelementptr inbounds i8, ptr %54, i64 8
  %56 = load ptr, ptr %55, align 8
  %57 = add i64 %45, 1
  %58 = icmp eq ptr %56, null
  %59 = ptrtoint ptr %56 to i64
  %60 = sub i64 %59, %49
  %61 = shl i64 %60, 21
  %62 = and i64 %61, -4294967296
  %.0.i.i6.i = select i1 %58, i64 -4294967296, i64 %62
  %63 = and i64 %57, 4294967295
  %64 = or disjoint i64 %.0.i.i6.i, %63
  %65 = inttoptr i64 %64 to ptr
  %66 = tail call noundef ptr asm sideeffect "lock cmpxchgq $1,($3)", "={ax},r,{ax},r,~{cc},~{memory},~{dirflag},~{fpsr},~{flags}"(ptr %65, ptr %.08.i5.i, ptr nonnull %.01330) #17, !srcloc !13
  %67 = icmp eq ptr %66, %.08.i5.i
  br i1 %67, label %.loopexit, label %44, !llvm.loop !14

.loopexit:                                        ; preds = %27, %53
  %.0.i.ph = phi ptr [ %54, %53 ], [ %28, %27 ]
  %68 = getelementptr inbounds i8, ptr %6, i64 8
  %69 = getelementptr inbounds [16 x ptr], ptr %68, i64 0, i64 %11
  store ptr %.0.i.ph, ptr %69, align 8
  br label %.loopexit21

_ZN11XMarkStripe11steal_stackEv.exit:             ; preds = %44
  %.013.idx = and i64 %.pn29, 144115188075855871
  %70 = add nuw nsw i64 %.013.idx, 1
  %71 = load i64, ptr %13, align 8
  %72 = and i64 %71, %70
  %.013 = getelementptr inbounds [16 x %class.XMarkStripe], ptr %8, i64 0, i64 %72
  %.not.not = icmp eq ptr %.013, %4
  br i1 %.not.not, label %.loopexit21, label %.lr.ph, !llvm.loop !15

.loopexit21:                                      ; preds = %_ZN11XMarkStripe11steal_stackEv.exit, %2, %.loopexit
  %.not25 = phi i1 [ true, %.loopexit ], [ false, %2 ], [ false, %_ZN11XMarkStripe11steal_stackEv.exit ]
  ret i1 %.not25
}